; ModuleID = '56/2457.cpp'
source_filename = "56/2457.cpp"
target datalayout = "e-m:e-p270:32:32-p271:32:32-p272:64:64-i64:64-f80:128-n8:16:32:64-S128"
target triple = "x86_64-pc-linux-gnu"

%"class.std::ios_base::Init" = type { i8 }
%"class.std::basic_istream" = type { i32 (...)**, i64, %"class.std::basic_ios" }
%"class.std::basic_ios" = type { %"class.std::ios_base", %"class.std::basic_ostream"*, i8, i8, %"class.std::basic_streambuf"*, %"class.std::ctype"*, %"class.std::num_put"*, %"class.std::num_get"* }
%"class.std::ios_base" = type { i32 (...)**, i64, i64, i32, i32, i32, %"struct.std::ios_base::_Callback_list"*, %"struct.std::ios_base::_Words", [8 x %"struct.std::ios_base::_Words"], i32, %"struct.std::ios_base::_Words"*, %"class.std::locale" }
%"struct.std::ios_base::_Callback_list" = type { %"struct.std::ios_base::_Callback_list"*, void (i32, %"class.std::ios_base"*, i32)*, i32, i32 }
%"struct.std::ios_base::_Words" = type { i8*, i64 }
%"class.std::locale" = type { %"class.std::locale::_Impl"* }
%"class.std::locale::_Impl" = type { i32, %"class.std::locale::facet"**, i64, %"class.std::locale::facet"**, i8** }
%"class.std::locale::facet" = type <{ i32 (...)**, i32, [4 x i8] }>
%"class.std::basic_ostream" = type { i32 (...)**, %"class.std::basic_ios" }
%"class.std::basic_streambuf" = type { i32 (...)**, i8*, i8*, i8*, i8*, i8*, i8*, %"class.std::locale" }
%"class.std::ctype" = type <{ %"class.std::locale::facet.base", [4 x i8], %struct.__locale_struct*, i8, [7 x i8], i32*, i32*, i16*, i8, [256 x i8], [256 x i8], i8, [6 x i8] }>
%"class.std::locale::facet.base" = type <{ i32 (...)**, i32 }>
%struct.__locale_struct = type { [13 x %struct.__locale_data*], i16*, i32*, i32*, [13 x i8*] }
%struct.__locale_data = type opaque
%"class.std::num_put" = type { %"class.std::locale::facet.base", [4 x i8] }
%"class.std::num_get" = type { %"class.std::locale::facet.base", [4 x i8] }

$_ZSt3powIdiEN9__gnu_cxx11__promote_2IT_T0_NS0_9__promoteIS2_Xsr3std12__is_integerIS2_EE7__valueEE6__typeENS4_IS3_Xsr3std12__is_integerIS3_EE7__valueEE6__typeEE6__typeES2_S3_ = comdat any

@_ZStL8__ioinit = internal global %"class.std::ios_base::Init" zeroinitializer, align 1
@__dso_handle = external hidden global i8
@_ZSt3cin = external dso_local global %"class.std::basic_istream", align 8
@_ZSt4cout = external dso_local global %"class.std::basic_ostream", align 8
@llvm.global_ctors = appending global [1 x { i32, void ()*, i8* }] [{ i32, void ()*, i8* } { i32 65535, void ()* @_GLOBAL__sub_I_2457.cpp, i8* null }]

; Function Attrs: noinline uwtable
define internal void @__cxx_global_var_init() #0 section ".text.startup" {
  call void @_ZNSt8ios_base4InitC1Ev(%"class.std::ios_base::Init"* @_ZStL8__ioinit)
  %1 = call i32 @__cxa_atexit(void (i8*)* bitcast (void (%"class.std::ios_base::Init"*)* @_ZNSt8ios_base4InitD1Ev to void (i8*)*), i8* getelementptr inbounds (%"class.std::ios_base::Init", %"class.std::ios_base::Init"* @_ZStL8__ioinit, i32 0, i32 0), i8* @__dso_handle) #3
  ret void
}

declare dso_local void @_ZNSt8ios_base4InitC1Ev(%"class.std::ios_base::Init"*) unnamed_addr #1

; Function Attrs: nounwind
declare dso_local void @_ZNSt8ios_base4InitD1Ev(%"class.std::ios_base::Init"*) unnamed_addr #2

; Function Attrs: nounwind
declare dso_local i32 @__cxa_atexit(void (i8*)*, i8*, i8*) #3

; Function Attrs: noinline norecurse uwtable
define dso_local i32 @main() #4 {
  %1 = alloca i32, align 4
  %2 = alloca i32, align 4
  %3 = alloca [6 x i32], align 16
  %4 = alloca i32, align 4
  %5 = alloca i32, align 4
  store i32 0, i32* %1, align 4
  %6 = call dereferenceable(280) %"class.std::basic_istream"* @_ZNSirsERi(%"class.std::basic_istream"* @_ZSt3cin, i32* dereferenceable(4) %2)
  %7 = load i32, i32* %2, align 4
  %8 = sdiv i32 %7, 10000
  %9 = getelementptr inbounds [6 x i32], [6 x i32]* %3, i64 0, i64 1
  store i32 %8, i32* %9, align 4
  %10 = load i32, i32* %2, align 4
  %11 = srem i32 %10, 10000
  %12 = sdiv i32 %11, 1000
  %13 = getelementptr inbounds [6 x i32], [6 x i32]* %3, i64 0, i64 2
  store i32 %12, i32* %13, align 8
  %14 = load i32, i32* %2, align 4
  %15 = srem i32 %14, 10000
  %16 = srem i32 %15, 1000
  %17 = sdiv i32 %16, 100
  %18 = getelementptr inbounds [6 x i32], [6 x i32]* %3, i64 0, i64 3
  store i32 %17, i32* %18, align 4
  %19 = load i32, i32* %2, align 4
  %20 = srem i32 %19, 10000
  %21 = srem i32 %20, 1000
  %22 = srem i32 %21, 100
  %23 = sdiv i32 %22, 10
  %24 = getelementptr inbounds [6 x i32], [6 x i32]* %3, i64 0, i64 4
  store i32 %23, i32* %24, align 16
  %25 = load i32, i32* %2, align 4
  %26 = srem i32 %25, 10000
  %27 = srem i32 %26, 1000
  %28 = srem i32 %27, 100
  %29 = srem i32 %28, 10
  %30 = getelementptr inbounds [6 x i32], [6 x i32]* %3, i64 0, i64 5
  store i32 %29, i32* %30, align 4
  %31 = load i32, i32* %2, align 4
  %32 = icmp sgt i32 %31, 9999
  br i1 %32, label %33, label %34

33:                                               ; preds = %0
  store i32 5, i32* %4, align 4
  br label %34

34:                                               ; preds = %33, %0
  %35 = load i32, i32* %2, align 4
  %36 = icmp sgt i32 %35, 999
  br i1 %36, label %37, label %41

37:                                               ; preds = %34
  %38 = load i32, i32* %2, align 4
  %39 = icmp sle i32 %38, 9999
  br i1 %39, label %40, label %41

40:                                               ; preds = %37
  store i32 4, i32* %4, align 4
  br label %41

41:                                               ; preds = %40, %37, %34
  %42 = load i32, i32* %2, align 4
  %43 = icmp sgt i32 %42, 99
  br i1 %43, label %44, label %48

44:                                               ; preds = %41
  %45 = load i32, i32* %2, align 4
  %46 = icmp sle i32 %45, 999
  br i1 %46, label %47, label %48

47:                                               ; preds = %44
  store i32 3, i32* %4, align 4
  br label %48

48:                                               ; preds = %47, %44, %41
  %49 = load i32, i32* %2, align 4
  %50 = icmp sgt i32 %49, 9
  br i1 %50, label %51, label %55

51:                                               ; preds = %48
  %52 = load i32, i32* %2, align 4
  %53 = icmp sle i32 %52, 99
  br i1 %53, label %54, label %55

54:                                               ; preds = %51
  store i32 2, i32* %4, align 4
  br label %55

55:                                               ; preds = %54, %51, %48
  %56 = load i32, i32* %2, align 4
  %57 = icmp sgt i32 %56, 0
  br i1 %57, label %58, label %62

58:                                               ; preds = %55
  %59 = load i32, i32* %2, align 4
  %60 = icmp sle i32 %59, 9
  br i1 %60, label %61, label %62

61:                                               ; preds = %58
  store i32 1, i32* %4, align 4
  br label %62

62:                                               ; preds = %61, %58, %55
  %63 = getelementptr inbounds [6 x i32], [6 x i32]* %3, i64 0, i64 5
  %64 = load i32, i32* %63, align 4
  %65 = sitofp i32 %64 to double
  %66 = load i32, i32* %4, align 4
  %67 = sub nsw i32 %66, 1
  %68 = call double @_ZSt3powIdiEN9__gnu_cxx11__promote_2IT_T0_NS0_9__promoteIS2_Xsr3std12__is_integerIS2_EE7__valueEE6__typeENS4_IS3_Xsr3std12__is_integerIS3_EE7__valueEE6__typeEE6__typeES2_S3_(double 1.000000e+01, i32 %67)
  %69 = fmul double %65, %68
  %70 = getelementptr inbounds [6 x i32], [6 x i32]* %3, i64 0, i64 4
  %71 = load i32, i32* %70, align 16
  %72 = sitofp i32 %71 to double
  %73 = load i32, i32* %4, align 4
  %74 = sub nsw i32 %73, 2
  %75 = call double @_ZSt3powIdiEN9__gnu_cxx11__promote_2IT_T0_NS0_9__promoteIS2_Xsr3std12__is_integerIS2_EE7__valueEE6__typeENS4_IS3_Xsr3std12__is_integerIS3_EE7__valueEE6__typeEE6__typeES2_S3_(double 1.000000e+01, i32 %74)
  %76 = fmul double %72, %75
  %77 = fadd double %69, %76
  %78 = getelementptr inbounds [6 x i32], [6 x i32]* %3, i64 0, i64 3
  %79 = load i32, i32* %78, align 4
  %80 = sitofp i32 %79 to double
  %81 = load i32, i32* %4, align 4
  %82 = sub nsw i32 %81, 3
  %83 = call double @_ZSt3powIdiEN9__gnu_cxx11__promote_2IT_T0_NS0_9__promoteIS2_Xsr3std12__is_integerIS2_EE7__valueEE6__typeENS4_IS3_Xsr3std12__is_integerIS3_EE7__valueEE6__typeEE6__typeES2_S3_(double 1.000000e+01, i32 %82)
  %84 = fmul double %80, %83
  %85 = fadd double %77, %84
  %86 = getelementptr inbounds [6 x i32], [6 x i32]* %3, i64 0, i64 2
  %87 = load i32, i32* %86, align 8
  %88 = sitofp i32 %87 to double
  %89 = load i32, i32* %4, align 4
  %90 = sub nsw i32 %89, 4
  %91 = call double @_ZSt3powIdiEN9__gnu_cxx11__promote_2IT_T0_NS0_9__promoteIS2_Xsr3std12__is_integerIS2_EE7__valueEE6__typeENS4_IS3_Xsr3std12__is_integerIS3_EE7__valueEE6__typeEE6__typeES2_S3_(double 1.000000e+01, i32 %90)
  %92 = fmul double %88, %91
  %93 = fadd double %85, %92
  %94 = getelementptr inbounds [6 x i32], [6 x i32]* %3, i64 0, i64 1
  %95 = load i32, i32* %94, align 4
  %96 = sitofp i32 %95 to double
  %97 = load i32, i32* %4, align 4
  %98 = sub nsw i32 %97, 5
  %99 = call double @_ZSt3powIdiEN9__gnu_cxx11__promote_2IT_T0_NS0_9__promoteIS2_Xsr3std12__is_integerIS2_EE7__valueEE6__typeENS4_IS3_Xsr3std12__is_integerIS3_EE7__valueEE6__typeEE6__typeES2_S3_(double 1.000000e+01, i32 %98)
  %100 = fmul double %96, %99
  %101 = fadd double %93, %100
  %102 = fptosi double %101 to i32
  store i32 %102, i32* %5, align 4
  %103 = load i32, i32* %5, align 4
  %104 = call dereferenceable(272) %"class.std::basic_ostream"* @_ZNSolsEi(%"class.std::basic_ostream"* @_ZSt4cout, i32 %103)
  ret i32 0
}

declare dso_local dereferenceable(280) %"class.std::basic_istream"* @_ZNSirsERi(%"class.std::basic_istream"*, i32* dereferenceable(4)) #1

; Function Attrs: noinline nounwind uwtable
define linkonce_odr dso_local double @_ZSt3powIdiEN9__gnu_cxx11__promote_2IT_T0_NS0_9__promoteIS2_Xsr3std12__is_integerIS2_EE7__valueEE6__typeENS4_IS3_Xsr3std12__is_integerIS3_EE7__valueEE6__typeEE6__typeES2_S3_(double %0, i32 %1) #5 comdat {
  %3 = alloca double, align 8
  %4 = alloca i32, align 4
  store double %0, double* %3, align 8
  store i32 %1, i32* %4, align 4
  %5 = load double, double* %3, align 8
  %6 = load i32, i32* %4, align 4
  %7 = sitofp i32 %6 to double
  %8 = call double @pow(double %5, double %7) #3
  ret double %8
}

declare dso_local dereferenceable(272) %"class.std::basic_ostream"* @_ZNSolsEi(%"class.std::basic_ostream"*, i32) #1

; Function Attrs: nounwind
declare dso_local double @pow(double, double) #2

; Function Attrs: noinline uwtable
define internal void @_GLOBAL__sub_I_2457.cpp() #0 section ".text.startup" {
  call void @__cxx_global_var_init()
  ret void
}


!llvm.module.flags = !{!0}
!llvm.ident = !{!1}

!0 = !{i32 1, !"wchar_size", i32 4}
!1 = !{!"clang version 10.0.0-4ubuntu1 "}
